target datalayout = "e-m:e-p270:32:32-p271:32:32-p272:64:64-i64:64-i128:128-f80:128-n8:16:32:64-S128"
target triple = "x86_64-pc-linux-gnu"

; Function Attrs: mustprogress nounwind uwtable
define internal noundef nonnull align 1 dereferenceable(1) ptr @"_ZNSt9_Any_data9_M_accessIZN3igl26decimate_trivial_callbacksERSt8functionIFbRKN5Eigen6MatrixIdLin1ELin1ELi0ELin1ELin1EEERKNS4_IiLin1ELin1ELi0ELin1ELin1EEESA_RKNS4_IiLin1ELi1ELi0ELin1ELi1EEESA_SA_RKSt14priority_queueISt5tupleIJdiiEESt6vectorISG_SaISG_EESt7greaterISG_EESD_S7_iEERS2_IFvS7_SA_SA_SD_SA_SA_SO_SD_S7_iiiiibEEE3$_1EERT_v"(ptr noundef nonnull align 8 dereferenceable(16) %0) #1 align 2 {
  %2 = alloca ptr, align 8
  store ptr %0, ptr %2, align 8, !tbaa !31
  %3 = load ptr, ptr %2, align 8
  %4 = call noundef ptr @_ZNSt9_Any_data9_M_accessEv(ptr noundef nonnull align 8 dereferenceable(16) %3) #8
  ret ptr %4
}

; Function Attrs: noinline noreturn nounwind uwtable
define linkonce_odr hidden void @__clang_call_terminate(ptr noundef %0) #5 comdat {
  %2 = call ptr @__cxa_begin_catch(ptr %0) #8
  call void @_ZSt9terminatev() #9
  unreachable
}

; Function Attrs: mustprogress nounwind uwtable
define internal void @"_ZNSt14_Function_base13_Base_managerIZN3igl26decimate_trivial_callbacksERSt8functionIFbRKN5Eigen6MatrixIdLin1ELin1ELi0ELin1ELin1EEERKNS4_IiLin1ELin1ELi0ELin1ELin1EEESA_RKNS4_IiLin1ELi1ELi0ELin1ELi1EEESA_SA_RKSt14priority_queueISt5tupleIJdiiEESt6vectorISG_SaISG_EESt7greaterISG_EESD_S7_iEERS2_IFvS7_SA_SA_SD_SA_SA_SO_SD_S7_iiiiibEEE3$_1E9_M_createIRKSV_EEvRSt9_Any_dataOT_St17integral_constantIbLb1EE"(ptr noundef nonnull align 8 dereferenceable(16) %0, ptr noundef nonnull align 1 dereferenceable(1) %1) #1 align 2 {
  %3 = alloca ptr, align 8
  %4 = alloca ptr, align 8
  store ptr %0, ptr %3, align 8, !tbaa !31
  store ptr %1, ptr %4, align 8, !tbaa !19
  %5 = load ptr, ptr %3, align 8, !tbaa !31
  %6 = call noundef ptr @_ZNSt9_Any_data9_M_accessEv(ptr noundef nonnull align 8 dereferenceable(16) %5) #8
  ret void
}

; Function Attrs: mustprogress nounwind uwtable
define linkonce_odr dso_local noundef ptr @_ZNKSt9_Any_data9_M_accessEv(ptr noundef nonnull align 8 dereferenceable(16) %0) #1 comdat align 2 {
  %2 = alloca ptr, align 8
  store ptr %0, ptr %2, align 8, !tbaa !31
  %3 = load ptr, ptr %2, align 8
  %4 = getelementptr inbounds [16 x i8], ptr %3, i64 0, i64 0
  ret ptr %4
}

; Function Attrs: mustprogress nounwind uwtable
define internal void @"_ZNSt14_Function_base13_Base_managerIZN3igl26decimate_trivial_callbacksERSt8functionIFbRKN5Eigen6MatrixIdLin1ELin1ELi0ELin1ELin1EEERKNS4_IiLin1ELin1ELi0ELin1ELin1EEESA_RKNS4_IiLin1ELi1ELi0ELin1ELi1EEESA_SA_RKSt14priority_queueISt5tupleIJdiiEESt6vectorISG_SaISG_EESt7greaterISG_EESD_S7_iEERS2_IFvS7_SA_SA_SD_SA_SA_SO_SD_S7_iiiiibEEE3$_1E10_M_destroyERSt9_Any_dataSt17integral_constantIbLb1EE"(ptr noundef nonnull align 8 dereferenceable(16) %0) #1 align 2 {
  %2 = alloca ptr, align 8
  store ptr %0, ptr %2, align 8, !tbaa !31
  %3 = load ptr, ptr %2, align 8, !tbaa !31
  %4 = call noundef nonnull align 1 dereferenceable(1) ptr @"_ZNSt9_Any_data9_M_accessIZN3igl26decimate_trivial_callbacksERSt8functionIFbRKN5Eigen6MatrixIdLin1ELin1ELi0ELin1ELin1EEERKNS4_IiLin1ELin1ELi0ELin1ELin1EEESA_RKNS4_IiLin1ELi1ELi0ELin1ELi1EEESA_SA_RKSt14priority_queueISt5tupleIJdiiEESt6vectorISG_SaISG_EESt7greaterISG_EESD_S7_iEERS2_IFvS7_SA_SA_SD_SA_SA_SO_SD_S7_iiiiibEEE3$_1EERT_v"(ptr noundef nonnull align 8 dereferenceable(16) %3) #8
  ret void
}

; Function Attrs: mustprogress nounwind uwtable
define internal void @"_ZNSt14_Function_base13_Base_managerIZN3igl26decimate_trivial_callbacksERSt8functionIFbRKN5Eigen6MatrixIdLin1ELin1ELi0ELin1ELin1EEERKNS4_IiLin1ELin1ELi0ELin1ELin1EEESA_RKNS4_IiLin1ELi1ELi0ELin1ELi1EEESA_SA_RKSt14priority_queueISt5tupleIJdiiEESt6vectorISG_SaISG_EESt7greaterISG_EESD_S7_iEERS2_IFvS7_SA_SA_SD_SA_SA_SO_SD_S7_iiiiibEEE3$_1E15_M_init_functorIRKSV_EEvRSt9_Any_dataOT_"(ptr noundef nonnull align 8 dereferenceable(16) %0, ptr noundef nonnull align 1 dereferenceable(1) %1) #1 align 2 personality ptr @__gxx_personality_v0 {
  %3 = alloca ptr, align 8
  %4 = alloca ptr, align 8
  store ptr %0, ptr %3, align 8, !tbaa !31
  store ptr %1, ptr %4, align 8, !tbaa !19
  %5 = load ptr, ptr %3, align 8, !tbaa !31
  %6 = load ptr, ptr %4, align 8, !tbaa !19
  invoke void @"_ZNSt14_Function_base13_Base_managerIZN3igl26decimate_trivial_callbacksERSt8functionIFbRKN5Eigen6MatrixIdLin1ELin1ELi0ELin1ELin1EEERKNS4_IiLin1ELin1ELi0ELin1ELin1EEESA_RKNS4_IiLin1ELi1ELi0ELin1ELi1EEESA_SA_RKSt14priority_queueISt5tupleIJdiiEESt6vectorISG_SaISG_EESt7greaterISG_EESD_S7_iEERS2_IFvS7_SA_SA_SD_SA_SA_SO_SD_S7_iiiiibEEE3$_1E9_M_createIRKSV_EEvRSt9_Any_dataOT_St17integral_constantIbLb1EE"(ptr noundef nonnull align 8 dereferenceable(16) %5, ptr noundef nonnull align 1 dereferenceable(1) %6)
          to label %7 unwind label %8

7:                                                ; preds = %2
  ret void

8:                                                ; preds = %2
  %9 = landingpad { ptr, i32 }
          catch ptr null
  %10 = extractvalue { ptr, i32 } %9, 0
  call void @__clang_call_terminate(ptr %10) #9
  unreachable
}

; Function Attrs: mustprogress nounwind uwtable
define internal noundef nonnull align 1 dereferenceable(1) ptr @"_ZNKSt9_Any_data9_M_accessIZN3igl26decimate_trivial_callbacksERSt8functionIFbRKN5Eigen6MatrixIdLin1ELin1ELi0ELin1ELin1EEERKNS4_IiLin1ELin1ELi0ELin1ELin1EEESA_RKNS4_IiLin1ELi1ELi0ELin1ELi1EEESA_SA_RKSt14priority_queueISt5tupleIJdiiEESt6vectorISG_SaISG_EESt7greaterISG_EESD_S7_iEERS2_IFvS7_SA_SA_SD_SA_SA_SO_SD_S7_iiiiibEEE3$_1EERKT_v"(ptr noundef nonnull align 8 dereferenceable(16) %0) #1 align 2 {
  %2 = alloca ptr, align 8
  store ptr %0, ptr %2, align 8, !tbaa !31
  %3 = load ptr, ptr %2, align 8
  %4 = call noundef ptr @_ZNKSt9_Any_data9_M_accessEv(ptr noundef nonnull align 8 dereferenceable(16) %3) #8
  ret ptr %4
}

; Function Attrs: mustprogress nounwind uwtable
define linkonce_odr dso_local noundef ptr @_ZNSt9_Any_data9_M_accessEv(ptr noundef nonnull align 8 dereferenceable(16) %0) #1 comdat align 2 {
  %2 = alloca ptr, align 8
  store ptr %0, ptr %2, align 8, !tbaa !31
  %3 = load ptr, ptr %2, align 8
  %4 = getelementptr inbounds [16 x i8], ptr %3, i64 0, i64 0
  ret ptr %4
}

; Function Attrs: mustprogress uwtable
define internal noundef zeroext i1 @"_ZNSt14_Function_base13_Base_managerIZN3igl26decimate_trivial_callbacksERSt8functionIFbRKN5Eigen6MatrixIdLin1ELin1ELi0ELin1ELin1EEERKNS4_IiLin1ELin1ELi0ELin1ELin1EEESA_RKNS4_IiLin1ELi1ELi0ELin1ELi1EEESA_SA_RKSt14priority_queueISt5tupleIJdiiEESt6vectorISG_SaISG_EESt7greaterISG_EESD_S7_iEERS2_IFvS7_SA_SA_SD_SA_SA_SO_SD_S7_iiiiibEEE3$_1E10_M_managerERSt9_Any_dataRKSX_St18_Manager_operation"(ptr noundef nonnull align 8 dereferenceable(16) %0, ptr noundef nonnull align 8 dereferenceable(16) %1, i32 noundef %2) #3 align 2 {
  %4 = alloca ptr, align 8
  %5 = alloca ptr, align 8
  %6 = alloca i32, align 4
  store ptr %0, ptr %4, align 8, !tbaa !31
  store ptr %1, ptr %5, align 8, !tbaa !31
  store i32 %2, ptr %6, align 4, !tbaa !43
  %7 = load i32, ptr %6, align 4, !tbaa !43
  switch i32 %7, label %22 [
    i32 0, label %8
    i32 1, label %11
    i32 2, label %16
    i32 3, label %20
  ]

8:                                                ; preds = %3
  %9 = load ptr, ptr %4, align 8, !tbaa !31
  %10 = call noundef nonnull align 8 dereferenceable(8) ptr @_ZNSt9_Any_data9_M_accessIPKSt9type_infoEERT_v(ptr noundef nonnull align 8 dereferenceable(16) %9) #8
  store ptr @"_ZTIZN3igl26decimate_trivial_callbacksERSt8functionIFbRKN5Eigen6MatrixIdLin1ELin1ELi0ELin1ELin1EEERKNS2_IiLin1ELin1ELi0ELin1ELin1EEES8_RKNS2_IiLin1ELi1ELi0ELin1ELi1EEES8_S8_RKSt14priority_queueISt5tupleIJdiiEESt6vectorISE_SaISE_EESt7greaterISE_EESB_S5_iEERS0_IFvS5_S8_S8_SB_S8_S8_SM_SB_S5_iiiiibEEE3$_1", ptr %10, align 8, !tbaa !45
  br label %22

11:                                               ; preds = %3
  %12 = load ptr, ptr %5, align 8, !tbaa !31
  %13 = call noundef ptr @"_ZNSt14_Function_base13_Base_managerIZN3igl26decimate_trivial_callbacksERSt8functionIFbRKN5Eigen6MatrixIdLin1ELin1ELi0ELin1ELin1EEERKNS4_IiLin1ELin1ELi0ELin1ELin1EEESA_RKNS4_IiLin1ELi1ELi0ELin1ELi1EEESA_SA_RKSt14priority_queueISt5tupleIJdiiEESt6vectorISG_SaISG_EESt7greaterISG_EESD_S7_iEERS2_IFvS7_SA_SA_SD_SA_SA_SO_SD_S7_iiiiibEEE3$_1E14_M_get_pointerERKSt9_Any_data"(ptr noundef nonnull align 8 dereferenceable(16) %12) #8
  %14 = load ptr, ptr %4, align 8, !tbaa !31
  %15 = call noundef nonnull align 8 dereferenceable(8) ptr @"_ZNSt9_Any_data9_M_accessIPZN3igl26decimate_trivial_callbacksERSt8functionIFbRKN5Eigen6MatrixIdLin1ELin1ELi0ELin1ELin1EEERKNS4_IiLin1ELin1ELi0ELin1ELin1EEESA_RKNS4_IiLin1ELi1ELi0ELin1ELi1EEESA_SA_RKSt14priority_queueISt5tupleIJdiiEESt6vectorISG_SaISG_EESt7greaterISG_EESD_S7_iEERS2_IFvS7_SA_SA_SD_SA_SA_SO_SD_S7_iiiiibEEE3$_1EERT_v"(ptr noundef nonnull align 8 dereferenceable(16) %14) #8
  store ptr %13, ptr %15, align 8, !tbaa !19
  br label %22

16:                                               ; preds = %3
  %17 = load ptr, ptr %4, align 8, !tbaa !31
  %18 = load ptr, ptr %5, align 8, !tbaa !31
  %19 = call noundef ptr @"_ZNSt14_Function_base13_Base_managerIZN3igl26decimate_trivial_callbacksERSt8functionIFbRKN5Eigen6MatrixIdLin1ELin1ELi0ELin1ELin1EEERKNS4_IiLin1ELin1ELi0ELin1ELin1EEESA_RKNS4_IiLin1ELi1ELi0ELin1ELi1EEESA_SA_RKSt14priority_queueISt5tupleIJdiiEESt6vectorISG_SaISG_EESt7greaterISG_EESD_S7_iEERS2_IFvS7_SA_SA_SD_SA_SA_SO_SD_S7_iiiiibEEE3$_1E14_M_get_pointerERKSt9_Any_data"(ptr noundef nonnull align 8 dereferenceable(16) %18) #8
  call void @"_ZNSt14_Function_base13_Base_managerIZN3igl26decimate_trivial_callbacksERSt8functionIFbRKN5Eigen6MatrixIdLin1ELin1ELi0ELin1ELin1EEERKNS4_IiLin1ELin1ELi0ELin1ELin1EEESA_RKNS4_IiLin1ELi1ELi0ELin1ELi1EEESA_SA_RKSt14priority_queueISt5tupleIJdiiEESt6vectorISG_SaISG_EESt7greaterISG_EESD_S7_iEERS2_IFvS7_SA_SA_SD_SA_SA_SO_SD_S7_iiiiibEEE3$_1E15_M_init_functorIRKSV_EEvRSt9_Any_dataOT_"(ptr noundef nonnull align 8 dereferenceable(16) %17, ptr noundef nonnull align 1 dereferenceable(1) %19) #8
  br label %22

20:                                               ; preds = %3
  %21 = load ptr, ptr %4, align 8, !tbaa !31
  call void @"_ZNSt14_Function_base13_Base_managerIZN3igl26decimate_trivial_callbacksERSt8functionIFbRKN5Eigen6MatrixIdLin1ELin1ELi0ELin1ELin1EEERKNS4_IiLin1ELin1ELi0ELin1ELin1EEESA_RKNS4_IiLin1ELi1ELi0ELin1ELi1EEESA_SA_RKSt14priority_queueISt5tupleIJdiiEESt6vectorISG_SaISG_EESt7greaterISG_EESD_S7_iEERS2_IFvS7_SA_SA_SD_SA_SA_SO_SD_S7_iiiiibEEE3$_1E10_M_destroyERSt9_Any_dataSt17integral_constantIbLb1EE"(ptr noundef nonnull align 8 dereferenceable(16) %21)
  br label %22

22:                                               ; preds = %3, %20, %16, %11, %8
  ret i1 false
}

; Function Attrs: mustprogress nounwind uwtable
define internal noundef nonnull align 8 dereferenceable(8) ptr @"_ZNSt9_Any_data9_M_accessIPZN3igl26decimate_trivial_callbacksERSt8functionIFbRKN5Eigen6MatrixIdLin1ELin1ELi0ELin1ELin1EEERKNS4_IiLin1ELin1ELi0ELin1ELin1EEESA_RKNS4_IiLin1ELi1ELi0ELin1ELi1EEESA_SA_RKSt14priority_queueISt5tupleIJdiiEESt6vectorISG_SaISG_EESt7greaterISG_EESD_S7_iEERS2_IFvS7_SA_SA_SD_SA_SA_SO_SD_S7_iiiiibEEE3$_1EERT_v"(ptr noundef nonnull align 8 dereferenceable(16) %0) #1 align 2 {
  %2 = alloca ptr, align 8
  store ptr %0, ptr %2, align 8, !tbaa !31
  %3 = load ptr, ptr %2, align 8
  %4 = call noundef ptr @_ZNSt9_Any_data9_M_accessEv(ptr noundef nonnull align 8 dereferenceable(16) %3) #8
  ret ptr %4
}

; Function Attrs: mustprogress nounwind uwtable
define internal noundef ptr @"_ZNSt14_Function_base13_Base_managerIZN3igl26decimate_trivial_callbacksERSt8functionIFbRKN5Eigen6MatrixIdLin1ELin1ELi0ELin1ELin1EEERKNS4_IiLin1ELin1ELi0ELin1ELin1EEESA_RKNS4_IiLin1ELi1ELi0ELin1ELi1EEESA_SA_RKSt14priority_queueISt5tupleIJdiiEESt6vectorISG_SaISG_EESt7greaterISG_EESD_S7_iEERS2_IFvS7_SA_SA_SD_SA_SA_SO_SD_S7_iiiiibEEE3$_1E14_M_get_pointerERKSt9_Any_data"(ptr noundef nonnull align 8 dereferenceable(16) %0) #1 align 2 {
  %2 = alloca ptr, align 8
  %3 = alloca ptr, align 8
  store ptr %0, ptr %2, align 8, !tbaa !31
  call void @llvm.lifetime.start.p0(i64 8, ptr %3) #8
  %4 = load ptr, ptr %2, align 8, !tbaa !31
  %5 = call noundef nonnull align 1 dereferenceable(1) ptr @"_ZNKSt9_Any_data9_M_accessIZN3igl26decimate_trivial_callbacksERSt8functionIFbRKN5Eigen6MatrixIdLin1ELin1ELi0ELin1ELin1EEERKNS4_IiLin1ELin1ELi0ELin1ELin1EEESA_RKNS4_IiLin1ELi1ELi0ELin1ELi1EEESA_SA_RKSt14priority_queueISt5tupleIJdiiEESt6vectorISG_SaISG_EESt7greaterISG_EESD_S7_iEERS2_IFvS7_SA_SA_SD_SA_SA_SO_SD_S7_iiiiibEEE3$_1EERKT_v"(ptr noundef nonnull align 8 dereferenceable(16) %4) #8
  store ptr %5, ptr %3, align 8, !tbaa !19
  %6 = load ptr, ptr %3, align 8, !tbaa !19
  call void @llvm.lifetime.end.p0(i64 8, ptr %3) #8
  ret ptr %6
}

; Function Attrs: mustprogress nounwind uwtable
define linkonce_odr dso_local noundef nonnull align 8 dereferenceable(8) ptr @_ZNSt9_Any_data9_M_accessIPKSt9type_infoEERT_v(ptr noundef nonnull align 8 dereferenceable(16) %0) #1 comdat align 2 {
  %2 = alloca ptr, align 8
  store ptr %0, ptr %2, align 8, !tbaa !31
  %3 = load ptr, ptr %2, align 8
  %4 = call noundef ptr @_ZNSt9_Any_data9_M_accessEv(ptr noundef nonnull align 8 dereferenceable(16) %3) #8
  ret ptr %4
}

; Function Attrs: mustprogress uwtable
define internal noundef zeroext i1 @"_ZNSt17_Function_handlerIFvRKN5Eigen6MatrixIdLin1ELin1ELi0ELin1ELin1EEERKNS1_IiLin1ELin1ELi0ELin1ELin1EEES7_RKNS1_IiLin1ELi1ELi0ELin1ELi1EEES7_S7_RKSt14priority_queueISt5tupleIJdiiEESt6vectorISD_SaISD_EESt7greaterISD_EESA_S4_iiiiibEZN3igl26decimate_trivial_callbacksERSt8functionIFbS4_S7_S7_SA_S7_S7_SL_SA_S4_iEERSO_ISM_EE3$_1E10_M_managerERSt9_Any_dataRKSW_St18_Manager_operation"(ptr noundef nonnull align 8 dereferenceable(16) %0, ptr noundef nonnull align 8 dereferenceable(16) %1, i32 noundef %2) #3 align 2 {
  %4 = alloca ptr, align 8
  %5 = alloca ptr, align 8
  %6 = alloca i32, align 4
  store ptr %0, ptr %4, align 8, !tbaa !31
  store ptr %1, ptr %5, align 8, !tbaa !31
  store i32 %2, ptr %6, align 4, !tbaa !43
  %7 = load i32, ptr %6, align 4, !tbaa !43
  switch i32 %7, label %16 [
    i32 0, label %8
    i32 1, label %11
  ]

8:                                                ; preds = %3
  %9 = load ptr, ptr %4, align 8, !tbaa !31
  %10 = call noundef nonnull align 8 dereferenceable(8) ptr @_ZNSt9_Any_data9_M_accessIPKSt9type_infoEERT_v(ptr noundef nonnull align 8 dereferenceable(16) %9) #8
  store ptr @"_ZTIZN3igl26decimate_trivial_callbacksERSt8functionIFbRKN5Eigen6MatrixIdLin1ELin1ELi0ELin1ELin1EEERKNS2_IiLin1ELin1ELi0ELin1ELin1EEES8_RKNS2_IiLin1ELi1ELi0ELin1ELi1EEES8_S8_RKSt14priority_queueISt5tupleIJdiiEESt6vectorISE_SaISE_EESt7greaterISE_EESB_S5_iEERS0_IFvS5_S8_S8_SB_S8_S8_SM_SB_S5_iiiiibEEE3$_1", ptr %10, align 8, !tbaa !45
  br label %21

11:                                               ; preds = %3
  %12 = load ptr, ptr %5, align 8, !tbaa !31
  %13 = call noundef ptr @"_ZNSt14_Function_base13_Base_managerIZN3igl26decimate_trivial_callbacksERSt8functionIFbRKN5Eigen6MatrixIdLin1ELin1ELi0ELin1ELin1EEERKNS4_IiLin1ELin1ELi0ELin1ELin1EEESA_RKNS4_IiLin1ELi1ELi0ELin1ELi1EEESA_SA_RKSt14priority_queueISt5tupleIJdiiEESt6vectorISG_SaISG_EESt7greaterISG_EESD_S7_iEERS2_IFvS7_SA_SA_SD_SA_SA_SO_SD_S7_iiiiibEEE3$_1E14_M_get_pointerERKSt9_Any_data"(ptr noundef nonnull align 8 dereferenceable(16) %12) #8
  %14 = load ptr, ptr %4, align 8, !tbaa !31
  %15 = call noundef nonnull align 8 dereferenceable(8) ptr @"_ZNSt9_Any_data9_M_accessIPZN3igl26decimate_trivial_callbacksERSt8functionIFbRKN5Eigen6MatrixIdLin1ELin1ELi0ELin1ELin1EEERKNS4_IiLin1ELin1ELi0ELin1ELin1EEESA_RKNS4_IiLin1ELi1ELi0ELin1ELi1EEESA_SA_RKSt14priority_queueISt5tupleIJdiiEESt6vectorISG_SaISG_EESt7greaterISG_EESD_S7_iEERS2_IFvS7_SA_SA_SD_SA_SA_SO_SD_S7_iiiiibEEE3$_1EERT_v"(ptr noundef nonnull align 8 dereferenceable(16) %14) #8
  store ptr %13, ptr %15, align 8, !tbaa !19
  br label %21

16:                                               ; preds = %3
  %17 = load ptr, ptr %4, align 8, !tbaa !31
  %18 = load ptr, ptr %5, align 8, !tbaa !31
  %19 = load i32, ptr %6, align 4, !tbaa !43
  %20 = call noundef zeroext i1 @"_ZNSt14_Function_base13_Base_managerIZN3igl26decimate_trivial_callbacksERSt8functionIFbRKN5Eigen6MatrixIdLin1ELin1ELi0ELin1ELin1EEERKNS4_IiLin1ELin1ELi0ELin1ELin1EEESA_RKNS4_IiLin1ELi1ELi0ELin1ELi1EEESA_SA_RKSt14priority_queueISt5tupleIJdiiEESt6vectorISG_SaISG_EESt7greaterISG_EESD_S7_iEERS2_IFvS7_SA_SA_SD_SA_SA_SO_SD_S7_iiiiibEEE3$_1E10_M_managerERSt9_Any_dataRKSX_St18_Manager_operation"(ptr noundef nonnull align 8 dereferenceable(16) %17, ptr noundef nonnull align 8 dereferenceable(16) %18, i32 noundef %19)
  br label %21

21:                                               ; preds = %16, %11, %8
  ret i1 false
}