; Function Attrs: mustprogress nofree norecurse nosync nounwind willreturn memory(argmem: write) uwtable
define internal noundef zeroext i1 @"_ZNSt17_Function_handlerIFvRKN5Eigen6MatrixIdLin1ELin1ELi0ELin1ELin1EEERKNS1_IiLin1ELin1ELi0ELin1ELin1EEES7_RKNS1_IiLin1ELi1ELi0ELin1ELi1EEES7_S7_RKSt14priority_queueISt5tupleIJdiiEESt6vectorISD_SaISD_EESt7greaterISD_EESA_S4_iiiiibEZN3igl26decimate_trivial_callbacksERSt8functionIFbS4_S7_S7_SA_S7_S7_SL_SA_S4_iEERSO_ISM_EE3$_1E10_M_managerERSt9_Any_dataRKSW_St18_Manager_operation"(ptr noundef nonnull writeonly align 8 captures(none) dereferenceable(16) %0, ptr noundef nonnull align 8 dereferenceable(16) %1, i32 noundef %2) #4 align 2 personality ptr @__gxx_personality_v0 {
  switch i32 %2, label %"_ZNSt14_Function_base13_Base_managerIZN3igl26decimate_trivial_callbacksERSt8functionIFbRKN5Eigen6MatrixIdLin1ELin1ELi0ELin1ELin1EEERKNS4_IiLin1ELin1ELi0ELin1ELin1EEESA_RKNS4_IiLin1ELi1ELi0ELin1ELi1EEESA_SA_RKSt14priority_queueISt5tupleIJdiiEESt6vectorISG_SaISG_EESt7greaterISG_EESD_S7_iEERS2_IFvS7_SA_SA_SD_SA_SA_SO_SD_S7_iiiiibEEE3$_1E10_M_managerERSt9_Any_dataRKSX_St18_Manager_operation.exit" [
    i32 0, label %"_ZNSt14_Function_base13_Base_managerIZN3igl26decimate_trivial_callbacksERSt8functionIFbRKN5Eigen6MatrixIdLin1ELin1ELi0ELin1ELin1EEERKNS4_IiLin1ELin1ELi0ELin1ELin1EEESA_RKNS4_IiLin1ELi1ELi0ELin1ELi1EEESA_SA_RKSt14priority_queueISt5tupleIJdiiEESt6vectorISG_SaISG_EESt7greaterISG_EESD_S7_iEERS2_IFvS7_SA_SA_SD_SA_SA_SO_SD_S7_iiiiibEEE3$_1E10_M_managerERSt9_Any_dataRKSX_St18_Manager_operation.exit.sink.split"
    i32 1, label %4
  ]

4:                                                ; preds = %3
  br label %"_ZNSt14_Function_base13_Base_managerIZN3igl26decimate_trivial_callbacksERSt8functionIFbRKN5Eigen6MatrixIdLin1ELin1ELi0ELin1ELin1EEERKNS4_IiLin1ELin1ELi0ELin1ELin1EEESA_RKNS4_IiLin1ELi1ELi0ELin1ELi1EEESA_SA_RKSt14priority_queueISt5tupleIJdiiEESt6vectorISG_SaISG_EESt7greaterISG_EESD_S7_iEERS2_IFvS7_SA_SA_SD_SA_SA_SO_SD_S7_iiiiibEEE3$_1E10_M_managerERSt9_Any_dataRKSX_St18_Manager_operation.exit.sink.split"

"_ZNSt14_Function_base13_Base_managerIZN3igl26decimate_trivial_callbacksERSt8functionIFbRKN5Eigen6MatrixIdLin1ELin1ELi0ELin1ELin1EEERKNS4_IiLin1ELin1ELi0ELin1ELin1EEESA_RKNS4_IiLin1ELi1ELi0ELin1ELi1EEESA_SA_RKSt14priority_queueISt5tupleIJdiiEESt6vectorISG_SaISG_EESt7greaterISG_EESD_S7_iEERS2_IFvS7_SA_SA_SD_SA_SA_SO_SD_S7_iiiiibEEE3$_1E10_M_managerERSt9_Any_dataRKSX_St18_Manager_operation.exit.sink.split": ; preds = %3, %4
  %.sink = phi ptr [ %1, %4 ], [ @"_ZTIZN3igl26decimate_trivial_callbacksERSt8functionIFbRKN5Eigen6MatrixIdLin1ELin1ELi0ELin1ELin1EEERKNS2_IiLin1ELin1ELi0ELin1ELin1EEES8_RKNS2_IiLin1ELi1ELi0ELin1ELi1EEES8_S8_RKSt14priority_queueISt5tupleIJdiiEESt6vectorISE_SaISE_EESt7greaterISE_EESB_S5_iEERS0_IFvS5_S8_S8_SB_S8_S8_SM_SB_S5_iiiiibEEE3$_1", %3 ]
  store ptr %.sink, ptr %0, align 8, !tbaa !8
  br label %"_ZNSt14_Function_base13_Base_managerIZN3igl26decimate_trivial_callbacksERSt8functionIFbRKN5Eigen6MatrixIdLin1ELin1ELi0ELin1ELin1EEERKNS4_IiLin1ELin1ELi0ELin1ELin1EEESA_RKNS4_IiLin1ELi1ELi0ELin1ELi1EEESA_SA_RKSt14priority_queueISt5tupleIJdiiEESt6vectorISG_SaISG_EESt7greaterISG_EESD_S7_iEERS2_IFvS7_SA_SA_SD_SA_SA_SO_SD_S7_iiiiibEEE3$_1E10_M_managerERSt9_Any_dataRKSX_St18_Manager_operation.exit"

"_ZNSt14_Function_base13_Base_managerIZN3igl26decimate_trivial_callbacksERSt8functionIFbRKN5Eigen6MatrixIdLin1ELin1ELi0ELin1ELin1EEERKNS4_IiLin1ELin1ELi0ELin1ELin1EEESA_RKNS4_IiLin1ELi1ELi0ELin1ELi1EEESA_SA_RKSt14priority_queueISt5tupleIJdiiEESt6vectorISG_SaISG_EESt7greaterISG_EESD_S7_iEERS2_IFvS7_SA_SA_SD_SA_SA_SO_SD_S7_iiiiibEEE3$_1E10_M_managerERSt9_Any_dataRKSX_St18_Manager_operation.exit": ; preds = %"_ZNSt14_Function_base13_Base_managerIZN3igl26decimate_trivial_callbacksERSt8functionIFbRKN5Eigen6MatrixIdLin1ELin1ELi0ELin1ELin1EEERKNS4_IiLin1ELin1ELi0ELin1ELin1EEESA_RKNS4_IiLin1ELi1ELi0ELin1ELi1EEESA_SA_RKSt14priority_queueISt5tupleIJdiiEESt6vectorISG_SaISG_EESt7greaterISG_EESD_S7_iEERS2_IFvS7_SA_SA_SD_SA_SA_SO_SD_S7_iiiiibEEE3$_1E10_M_managerERSt9_Any_dataRKSX_St18_Manager_operation.exit.sink.split", %3
  ret i1 false
}